target datalayout = "e-m:e-p270:32:32-p271:32:32-p272:64:64-i64:64-i128:128-f80:128-n8:16:32:64-S128"
target triple = "x86_64-pc-linux-gnu"

@_ZN12_GLOBAL__N_114gMinCorrectionE = internal global i32 0, align 4
@_ZL23kPersianLeapMonthLength = internal constant [12 x i8] c"\1F\1F\1F\1F\1F\1F\1E\1E\1E\1E\1E\1E", align 1
@_ZL19kPersianMonthLength = internal constant [12 x i8] c"\1F\1F\1F\1F\1F\1F\1E\1E\1E\1E\1E\1D", align 1

; Function Attrs: mustprogress uwtable
define noundef signext i8 @_ZN6icu_7715PersianCalendar10isLeapYearEi(i32 noundef %0) #1 align 2 {
  %2 = alloca i8, align 1
  %3 = alloca i32, align 4
  %4 = alloca i64, align 8
  %5 = alloca i8, align 1
  store i32 %0, ptr %3, align 4, !tbaa !17
  %6 = load i32, ptr %3, align 4, !tbaa !17
  %7 = load i32, ptr @_ZN12_GLOBAL__N_114gMinCorrectionE, align 4, !tbaa !17
  %8 = icmp sge i32 %6, %7
  br i1 %8, label %9, label %15

9:                                                ; preds = %1
  %10 = call noundef ptr @_ZN12_GLOBAL__N_117getLeapCorrectionEv()
  %11 = load i32, ptr %3, align 4, !tbaa !17
  %12 = call noundef signext i8 @_ZNK6icu_7710UnicodeSet8containsEi(ptr noundef nonnull align 8 dereferenceable(200) %10, i32 noundef %11)
  %13 = icmp ne i8 %12, 0
  br i1 %13, label %14, label %15

14:                                               ; preds = %9
  store i8 0, ptr %2, align 1
  br label %38

15:                                               ; preds = %9, %1
  %16 = load i32, ptr %3, align 4, !tbaa !17
  %17 = load i32, ptr @_ZN12_GLOBAL__N_114gMinCorrectionE, align 4, !tbaa !17
  %18 = icmp sgt i32 %16, %17
  br i1 %18, label %19, label %26

19:                                               ; preds = %15
  %20 = call noundef ptr @_ZN12_GLOBAL__N_117getLeapCorrectionEv()
  %21 = load i32, ptr %3, align 4, !tbaa !17
  %22 = sub nsw i32 %21, 1
  %23 = call noundef signext i8 @_ZNK6icu_7710UnicodeSet8containsEi(ptr noundef nonnull align 8 dereferenceable(200) %20, i32 noundef %22)
  %24 = icmp ne i8 %23, 0
  br i1 %24, label %25, label %26

25:                                               ; preds = %19
  store i8 1, ptr %2, align 1
  br label %38

26:                                               ; preds = %19, %15
  call void @llvm.lifetime.start.p0(i64 8, ptr %4) #9
  %27 = load i32, ptr %3, align 4, !tbaa !17
  %28 = sext i32 %27 to i64
  %29 = mul nsw i64 %28, 25
  %30 = add nsw i64 %29, 11
  store i64 %30, ptr %4, align 8, !tbaa !19
  call void @llvm.lifetime.start.p0(i64 1, ptr %5) #9
  %31 = load i64, ptr %4, align 8, !tbaa !19
  %32 = srem i64 %31, 33
  %33 = icmp slt i64 %32, 8
  %34 = zext i1 %33 to i8
  store i8 %34, ptr %5, align 1, !tbaa !21
  %35 = load i8, ptr %5, align 1, !tbaa !21, !range !23, !noundef !24
  %36 = trunc i8 %35 to i1
  %37 = zext i1 %36 to i8
  store i8 %37, ptr %2, align 1
  call void @llvm.lifetime.end.p0(i64 1, ptr %5) #9
  call void @llvm.lifetime.end.p0(i64 8, ptr %4) #9
  br label %38

38:                                               ; preds = %26, %25, %14
  %39 = load i8, ptr %2, align 1
  ret i8 %39
}

; Function Attrs: mustprogress uwtable
define noundef i32 @_ZNK6icu_7715PersianCalendar20handleGetMonthLengthEiiR10UErrorCode(ptr noundef nonnull align 8 dereferenceable(192) %0, i32 noundef %1, i32 noundef %2, ptr noundef nonnull align 4 dereferenceable(4) %3) unnamed_addr #1 align 2 {
  %5 = alloca ptr, align 8
  %6 = alloca i32, align 4
  %7 = alloca i32, align 4
  %8 = alloca ptr, align 8
  store ptr %0, ptr %5, align 8, !tbaa !3
  store i32 %1, ptr %6, align 4, !tbaa !17
  store i32 %2, ptr %7, align 4, !tbaa !17
  store ptr %3, ptr %8, align 8, !tbaa !10
  %9 = load i32, ptr %7, align 4, !tbaa !17
  %10 = icmp slt i32 %9, 0
  br i1 %10, label %14, label %11

11:                                               ; preds = %4
  %12 = load i32, ptr %7, align 4, !tbaa !17
  %13 = icmp sgt i32 %12, 11
  br i1 %13, label %14, label %19

14:                                               ; preds = %11, %4
  %15 = load i32, ptr %7, align 4, !tbaa !17
  %16 = call noundef i32 @_ZN6icu_779ClockMath11floorDivideEiiPi(i32 noundef %15, i32 noundef 12, ptr noundef %7)
  %17 = load i32, ptr %6, align 4, !tbaa !17
  %18 = add nsw i32 %17, %16
  store i32 %18, ptr %6, align 4, !tbaa !17
  br label %19

19:                                               ; preds = %14, %11
  %20 = load i32, ptr %6, align 4, !tbaa !17
  %21 = call noundef signext i8 @_ZN6icu_7715PersianCalendar10isLeapYearEi(i32 noundef %20)
  %22 = icmp ne i8 %21, 0
  br i1 %22, label %23, label %28

23:                                               ; preds = %19
  %24 = load i32, ptr %7, align 4, !tbaa !17
  %25 = sext i32 %24 to i64
  %26 = getelementptr inbounds [12 x i8], ptr @_ZL23kPersianLeapMonthLength, i64 0, i64 %25
  %27 = load i8, ptr %26, align 1, !tbaa !27
  br label %33

28:                                               ; preds = %19
  %29 = load i32, ptr %7, align 4, !tbaa !17
  %30 = sext i32 %29 to i64
  %31 = getelementptr inbounds [12 x i8], ptr @_ZL19kPersianMonthLength, i64 0, i64 %30
  %32 = load i8, ptr %31, align 1, !tbaa !27
  br label %33

33:                                               ; preds = %28, %23
  %34 = phi i8 [ %27, %23 ], [ %32, %28 ]
  %35 = sext i8 %34 to i32
  ret i32 %35
}