; Function Attrs: mustprogress uwtable
define noundef range(i32 -128, 128) i32 @_ZNK6icu_7715PersianCalendar20handleGetMonthLengthEiiR10UErrorCode(ptr nonnull readnone align 8 captures(none) %0, i32 noundef %1, i32 noundef %2, ptr nonnull readnone align 4 captures(none) %3) unnamed_addr #1 align 2 {
  %5 = alloca i32, align 4
  store i32 %2, ptr %5, align 4, !tbaa !6
  %or.cond = icmp ugt i32 %2, 11
  br i1 %or.cond, label %6, label %9

6:                                                ; preds = %4
  %7 = call noundef i32 @_ZN6icu_779ClockMath11floorDivideEiiPi(i32 noundef %2, i32 noundef 12, ptr noundef nonnull %5)
  %8 = add i32 %7, %1
  br label %9

9:                                                ; preds = %4, %6
  %.0 = phi i32 [ %8, %6 ], [ %1, %4 ]
  %.b = load i1, ptr @_ZN12_GLOBAL__N_114gMinCorrectionE, align 4
  %10 = select i1 %.b, i32 1502, i32 0
  %.not.i = icmp slt i32 %.0, %10
  br i1 %.not.i, label %17, label %11

11:                                               ; preds = %9
  %12 = call fastcc noundef ptr @_ZN12_GLOBAL__N_117getLeapCorrectionEv()
  %13 = call noundef signext i8 @_ZNK6icu_7710UnicodeSet8containsEi(ptr noundef nonnull align 8 dereferenceable(200) %12, i32 noundef %.0)
  %.not9.i = icmp eq i8 %13, 0
  br i1 %.not9.i, label %._crit_edge.i, label %_ZN6icu_7715PersianCalendar10isLeapYearEi.exit.thread

_ZN6icu_7715PersianCalendar10isLeapYearEi.exit.thread: ; preds = %11
  %14 = load i32, ptr %5, align 4
  %15 = sext i32 %14 to i64
  %16 = getelementptr inbounds [12 x i8], ptr @_ZL19kPersianMonthLength, i64 0, i64 %15
  br label %35

._crit_edge.i:                                    ; preds = %11
  %.pre.i.b = load i1, ptr @_ZN12_GLOBAL__N_114gMinCorrectionE, align 4
  %.pre.i = select i1 %.pre.i.b, i32 1502, i32 0
  br label %17

17:                                               ; preds = %._crit_edge.i, %9
  %18 = phi i32 [ %.pre.i, %._crit_edge.i ], [ %10, %9 ]
  %19 = icmp sgt i32 %.0, %18
  br i1 %19, label %20, label %._ZN6icu_7715PersianCalendar10isLeapYearEi.exit_crit_edge

._ZN6icu_7715PersianCalendar10isLeapYearEi.exit_crit_edge: ; preds = %17
  %.pre = load i32, ptr %5, align 4
  br label %_ZN6icu_7715PersianCalendar10isLeapYearEi.exit

20:                                               ; preds = %17
  %21 = call fastcc noundef ptr @_ZN12_GLOBAL__N_117getLeapCorrectionEv()
  %22 = add nsw i32 %.0, -1
  %23 = call noundef signext i8 @_ZNK6icu_7710UnicodeSet8containsEi(ptr noundef nonnull align 8 dereferenceable(200) %21, i32 noundef %22)
  %.not10.i = icmp eq i8 %23, 0
  %.pre12 = load i32, ptr %5, align 4
  br i1 %.not10.i, label %_ZN6icu_7715PersianCalendar10isLeapYearEi.exit, label %_ZN6icu_7715PersianCalendar10isLeapYearEi.exit.thread6

_ZN6icu_7715PersianCalendar10isLeapYearEi.exit.thread6: ; preds = %20
  %24 = sext i32 %.pre12 to i64
  %25 = getelementptr inbounds [12 x i8], ptr @_ZL23kPersianLeapMonthLength, i64 0, i64 %24
  br label %35

_ZN6icu_7715PersianCalendar10isLeapYearEi.exit:   ; preds = %._ZN6icu_7715PersianCalendar10isLeapYearEi.exit_crit_edge, %20
  %26 = phi i32 [ %.pre, %._ZN6icu_7715PersianCalendar10isLeapYearEi.exit_crit_edge ], [ %.pre12, %20 ]
  %27 = sext i32 %.0 to i64
  %28 = mul nsw i64 %27, 25
  %29 = add nsw i64 %28, 11
  %30 = srem i64 %29, 33
  %31 = icmp sgt i64 %30, 7
  %32 = sext i32 %26 to i64
  %33 = getelementptr inbounds [12 x i8], ptr @_ZL23kPersianLeapMonthLength, i64 0, i64 %32
  %34 = getelementptr inbounds [12 x i8], ptr @_ZL19kPersianMonthLength, i64 0, i64 %32
  %spec.select = select i1 %31, ptr %34, ptr %33
  br label %35

35:                                               ; preds = %_ZN6icu_7715PersianCalendar10isLeapYearEi.exit, %_ZN6icu_7715PersianCalendar10isLeapYearEi.exit.thread, %_ZN6icu_7715PersianCalendar10isLeapYearEi.exit.thread6
  %36 = phi ptr [ %25, %_ZN6icu_7715PersianCalendar10isLeapYearEi.exit.thread6 ], [ %16, %_ZN6icu_7715PersianCalendar10isLeapYearEi.exit.thread ], [ %spec.select, %_ZN6icu_7715PersianCalendar10isLeapYearEi.exit ]
  %37 = load i8, ptr %36, align 1, !tbaa !14
  %38 = sext i8 %37 to i32
  ret i32 %38
}